; Function Attrs: mustprogress nounwind uwtable
define internal fastcc void @_ZN11opencv_test12_GLOBAL__N_111ExposureSeqD2Ev(ptr nocapture noundef nonnull readonly align 8 dereferenceable(48) %0) unnamed_addr #3 align 2 personality ptr @__gxx_personality_v0 {
  %2 = getelementptr inbounds i8, ptr %0, i64 24
  %3 = load ptr, ptr %2, align 8
  %.not.i.i.i = icmp eq ptr %3, null
  br i1 %.not.i.i.i, label %_ZNSt6vectorIfSaIfEED2Ev.exit, label %4

4:                                                ; preds = %1
  tail call void @_ZdlPv(ptr noundef nonnull %3) #17
  br label %_ZNSt6vectorIfSaIfEED2Ev.exit

_ZNSt6vectorIfSaIfEED2Ev.exit:                    ; preds = %1, %4
  %5 = load ptr, ptr %0, align 8
  %6 = getelementptr inbounds i8, ptr %0, i64 8
  %7 = load ptr, ptr %6, align 8
  %.not4.i.i.i.i = icmp eq ptr %5, %7
  br i1 %.not4.i.i.i.i, label %_ZSt8_DestroyIPN2cv3MatES1_EvT_S3_RSaIT0_E.exit.i, label %.lr.ph.i.i.i.i

.lr.ph.i.i.i.i:                                   ; preds = %_ZNSt6vectorIfSaIfEED2Ev.exit, %.lr.ph.i.i.i.i
  %.05.i.i.i.i = phi ptr [ %8, %.lr.ph.i.i.i.i ], [ %5, %_ZNSt6vectorIfSaIfEED2Ev.exit ]
  tail call void @_ZN2cv3MatD1Ev(ptr noundef nonnull align 8 dereferenceable(96) %.05.i.i.i.i) #19
  %8 = getelementptr inbounds i8, ptr %.05.i.i.i.i, i64 96
  %.not.i.i.i.i = icmp eq ptr %8, %7
  br i1 %.not.i.i.i.i, label %_ZSt8_DestroyIPN2cv3MatES1_EvT_S3_RSaIT0_E.exitthread-pre-split.i, label %.lr.ph.i.i.i.i, !llvm.loop !7

_ZSt8_DestroyIPN2cv3MatES1_EvT_S3_RSaIT0_E.exitthread-pre-split.i: ; preds = %.lr.ph.i.i.i.i
  %.pr.i = load ptr, ptr %0, align 8
  br label %_ZSt8_DestroyIPN2cv3MatES1_EvT_S3_RSaIT0_E.exit.i

_ZSt8_DestroyIPN2cv3MatES1_EvT_S3_RSaIT0_E.exit.i: ; preds = %_ZSt8_DestroyIPN2cv3MatES1_EvT_S3_RSaIT0_E.exitthread-pre-split.i, %_ZNSt6vectorIfSaIfEED2Ev.exit
  %9 = phi ptr [ %.pr.i, %_ZSt8_DestroyIPN2cv3MatES1_EvT_S3_RSaIT0_E.exitthread-pre-split.i ], [ %5, %_ZNSt6vectorIfSaIfEED2Ev.exit ]
  %.not.i.i.i1 = icmp eq ptr %9, null
  br i1 %.not.i.i.i1, label %_ZNSt6vectorIN2cv3MatESaIS1_EED2Ev.exit, label %10

10:                                               ; preds = %_ZSt8_DestroyIPN2cv3MatES1_EvT_S3_RSaIT0_E.exit.i
  tail call void @_ZdlPv(ptr noundef nonnull %9) #17
  br label %_ZNSt6vectorIN2cv3MatESaIS1_EED2Ev.exit

_ZNSt6vectorIN2cv3MatESaIS1_EED2Ev.exit:          ; preds = %_ZSt8_DestroyIPN2cv3MatES1_EvT_S3_RSaIT0_E.exit.i, %10
  ret void
}